target datalayout = "e-m:e-p270:32:32-p271:32:32-p272:64:64-i64:64-i128:128-f80:128-n8:16:32:64-S128"
target triple = "x86_64-pc-linux-gnu"

@AggressiveHeap = external global i8, align 1

; Function Attrs: mustprogress nounwind uwtable
define linkonce_odr hidden noundef i64 @_Z4MIN2ImET_S0_S0_(i64 noundef %0, i64 noundef %1) #1 comdat {
  %3 = alloca i64, align 8
  %4 = alloca i64, align 8
  store i64 %0, ptr %3, align 8
  store i64 %1, ptr %4, align 8
  %5 = load i64, ptr %3, align 8
  %6 = load i64, ptr %4, align 8
  %7 = icmp ult i64 %5, %6
  br i1 %7, label %8, label %10

8:                                                ; preds = %2
  %9 = load i64, ptr %3, align 8
  br label %12

10:                                               ; preds = %2
  %11 = load i64, ptr %4, align 8
  br label %12

12:                                               ; preds = %10, %8
  %13 = phi i64 [ %9, %8 ], [ %11, %10 ]
  ret i64 %13
}

; Function Attrs: mustprogress nounwind uwtable
define hidden noundef i64 @_ZN9Arguments32limit_heap_by_allocatable_memoryEm(i64 noundef %0) #1 align 2 {
  %2 = alloca i64, align 8
  %3 = alloca i64, align 8
  %4 = alloca i64, align 8
  %5 = alloca i64, align 8
  %6 = alloca i64, align 8
  store i64 %0, ptr %2, align 8
  %7 = load i64, ptr %2, align 8
  store i64 %7, ptr %4, align 8
  %8 = call noundef zeroext i1 @_ZN2os28has_allocatable_memory_limitEPm(ptr noundef %3)
  br i1 %8, label %9, label %28

9:                                                ; preds = %1
  %10 = load i8, ptr @AggressiveHeap, align 1
  %11 = trunc i8 %10 to i1
  br i1 %11, label %12, label %13

12:                                               ; preds = %9
  br label %19

13:                                               ; preds = %9
  %14 = call noundef ptr @_ZN8GCConfig9argumentsEv()
  %15 = load ptr, ptr %14, align 8
  %16 = getelementptr inbounds ptr, ptr %15, i64 5
  %17 = load ptr, ptr %16, align 8
  %18 = call noundef i64 %17(ptr noundef nonnull align 8 dereferenceable(8) %14)
  br label %19

19:                                               ; preds = %13, %12
  %20 = phi i64 [ 1, %12 ], [ %18, %13 ]
  store i64 %20, ptr %5, align 8
  %21 = load i64, ptr %5, align 8
  %22 = mul i64 2, %21
  store i64 %22, ptr %6, align 8
  %23 = load i64, ptr %4, align 8
  %24 = load i64, ptr %3, align 8
  %25 = load i64, ptr %6, align 8
  %26 = udiv i64 %24, %25
  %27 = call noundef i64 @_Z4MIN2ImET_S0_S0_(i64 noundef %23, i64 noundef %26)
  store i64 %27, ptr %4, align 8
  br label %28

28:                                               ; preds = %19, %1
  %29 = load i64, ptr %4, align 8
  ret i64 %29
}