; Function Attrs: mustprogress nounwind uwtable
define hidden noundef i64 @_ZN9Arguments32limit_heap_by_allocatable_memoryEm(i64 noundef %0) local_unnamed_addr #0 align 2 {
  %2 = alloca i64, align 8
  %3 = call noundef zeroext i1 @_ZN2os28has_allocatable_memory_limitEPm(ptr noundef nonnull %2) #31
  br i1 %3, label %4, label %19

4:                                                ; preds = %1
  %5 = load i8, ptr @AggressiveHeap, align 1
  %6 = trunc i8 %5 to i1
  br i1 %6, label %14, label %7

7:                                                ; preds = %4
  %8 = call noundef ptr @_ZN8GCConfig9argumentsEv() #31
  %9 = load ptr, ptr %8, align 8
  %10 = getelementptr inbounds i8, ptr %9, i64 40
  %11 = load ptr, ptr %10, align 8
  %12 = call noundef i64 %11(ptr noundef nonnull align 8 dereferenceable(8) %8) #31
  %13 = shl i64 %12, 1
  br label %14

14:                                               ; preds = %4, %7
  %15 = phi i64 [ %13, %7 ], [ 2, %4 ]
  %16 = load i64, ptr %2, align 8
  %17 = udiv i64 %16, %15
  %18 = call noundef i64 @llvm.umin.i64(i64 %0, i64 %17)
  br label %19

19:                                               ; preds = %14, %1
  %.0 = phi i64 [ %18, %14 ], [ %0, %1 ]
  ret i64 %.0
}